target datalayout = "e-m:e-p270:32:32-p271:32:32-p272:64:64-i64:64-i128:128-f80:128-n8:16:32:64-S128"
target triple = "x86_64-pc-linux-gnu"

%struct.H5G_loc_t = type { ptr, ptr }
%struct.H5G_obj_create_t = type { i64, i32, %union.H5G_cache_t }
%union.H5G_cache_t = type { %struct.anon }
%struct.anon = type { i64, i64 }
%struct.H5VL_loc_params_t = type { i32, i32, %union.anon }
%union.anon = type { %struct.H5VL_loc_by_idx }
%struct.H5VL_loc_by_idx = type { ptr, i32, i32, i64, i64 }
%struct.H5O_loc_t = type { ptr, i64, i8 }

@.str = private unnamed_addr constant [110 x i8] c"generated/home/dtcxzyw/WorkSpace/Projects/compilers/llvm-opt-benchmark/bench/hdf5/hdf5/src/H5VLnative_group.c\00", align 1
@__func__.H5VL__native_group_create = private unnamed_addr constant [26 x i8] c"H5VL__native_group_create\00", align 1
@H5E_ARGS_g = external global i64, align 8
@H5E_BADTYPE_g = external global i64, align 8
@.str.1 = private unnamed_addr constant [26 x i8] c"not a file or file object\00", align 1
@H5E_SYM_g = external global i64, align 8
@H5E_CANTINIT_g = external global i64, align 8
@.str.2 = private unnamed_addr constant [23 x i8] c"unable to create group\00", align 1
@H5E_CANTGET_g = external global i64, align 8
@.str.3 = private unnamed_addr constant [39 x i8] c"unable to get object location of group\00", align 1
@H5E_CANTDEC_g = external global i64, align 8
@.str.4 = private unnamed_addr constant [53 x i8] c"unable to decrement refcount on newly created object\00", align 1

; Function Attrs: nounwind uwtable
define ptr @H5VL__native_group_create(ptr noundef %0, ptr noundef %1, ptr noundef %2, i64 noundef %3, i64 noundef %4, i64 noundef %5, i64 noundef %6, ptr noundef %7) #0 {
  %9 = alloca ptr, align 8
  %10 = alloca ptr, align 8
  %11 = alloca ptr, align 8
  %12 = alloca i64, align 8
  %13 = alloca i64, align 8
  %14 = alloca i64, align 8
  %15 = alloca i64, align 8
  %16 = alloca ptr, align 8
  %17 = alloca %struct.H5G_loc_t, align 8
  %18 = alloca ptr, align 8
  %19 = alloca ptr, align 8
  %20 = alloca i8, align 1
  %21 = alloca %struct.H5G_obj_create_t, align 8
  %22 = alloca ptr, align 8
  store ptr %0, ptr %9, align 8
  store ptr %1, ptr %10, align 8
  store ptr %2, ptr %11, align 8
  store i64 %3, ptr %12, align 8
  store i64 %4, ptr %13, align 8
  store i64 %5, ptr %14, align 8
  store i64 %6, ptr %15, align 8
  store ptr %7, ptr %16, align 8
  store ptr null, ptr %18, align 8
  store i8 0, ptr %20, align 1
  %23 = load ptr, ptr %9, align 8
  %24 = load ptr, ptr %10, align 8
  %25 = getelementptr inbounds %struct.H5VL_loc_params_t, ptr %24, i32 0, i32 0
  %26 = load i32, ptr %25, align 8
  %27 = call i32 @H5G_loc_real(ptr noundef %23, i32 noundef %26, ptr noundef %17)
  %28 = icmp slt i32 %27, 0
  br i1 %28, label %29, label %44

29:                                               ; preds = %8
  br label %30

30:                                               ; preds = %29
  br label %31

31:                                               ; preds = %30
  br label %32

32:                                               ; preds = %31
  %33 = load i64, ptr @H5E_ARGS_g, align 8
  %34 = load i64, ptr @H5E_BADTYPE_g, align 8
  %35 = call i32 (ptr, ptr, i32, i64, i64, ptr, ...) @H5E_printf_stack(ptr noundef @.str, ptr noundef @__func__.H5VL__native_group_create, i32 noundef 83, i64 noundef %33, i64 noundef %34, ptr noundef @.str.1)
  br label %36

36:                                               ; preds = %32
  store i8 1, ptr %20, align 1
  %37 = load i8, ptr %20, align 1
  %38 = trunc i8 %37 to i1
  %39 = zext i1 %38 to i8
  store i8 %39, ptr %20, align 1
  br label %40

40:                                               ; preds = %36
  br label %41

41:                                               ; preds = %40
  store ptr null, ptr %19, align 8
  br label %98

42:                                               ; No predecessors!
  br label %43

43:                                               ; preds = %42
  br label %44

44:                                               ; preds = %43, %8
  %45 = load ptr, ptr %11, align 8
  %46 = icmp eq ptr %45, null
  br i1 %46, label %47, label %74

47:                                               ; preds = %44
  %48 = load i64, ptr %13, align 8
  %49 = getelementptr inbounds %struct.H5G_obj_create_t, ptr %21, i32 0, i32 0
  store i64 %48, ptr %49, align 8
  %50 = getelementptr inbounds %struct.H5G_obj_create_t, ptr %21, i32 0, i32 1
  store i32 0, ptr %50, align 8
  %51 = getelementptr inbounds %struct.H5G_obj_create_t, ptr %21, i32 0, i32 2
  call void @llvm.memset.p0.i64(ptr align 8 %51, i8 0, i64 16, i1 false)
  %52 = getelementptr inbounds %struct.H5G_loc_t, ptr %17, i32 0, i32 0
  %53 = load ptr, ptr %52, align 8
  %54 = getelementptr inbounds %struct.H5O_loc_t, ptr %53, i32 0, i32 0
  %55 = load ptr, ptr %54, align 8
  %56 = call ptr @H5G__create(ptr noundef %55, ptr noundef %21)
  store ptr %56, ptr %18, align 8
  %57 = icmp eq ptr null, %56
  br i1 %57, label %58, label %73

58:                                               ; preds = %47
  br label %59

59:                                               ; preds = %58
  br label %60

60:                                               ; preds = %59
  br label %61

61:                                               ; preds = %60
  %62 = load i64, ptr @H5E_SYM_g, align 8
  %63 = load i64, ptr @H5E_CANTINIT_g, align 8
  %64 = call i32 (ptr, ptr, i32, i64, i64, ptr, ...) @H5E_printf_stack(ptr noundef @.str, ptr noundef @__func__.H5VL__native_group_create, i32 noundef 96, i64 noundef %62, i64 noundef %63, ptr noundef @.str.2)
  br label %65

65:                                               ; preds = %61
  store i8 1, ptr %20, align 1
  %66 = load i8, ptr %20, align 1
  %67 = trunc i8 %66 to i1
  %68 = zext i1 %67 to i8
  store i8 %68, ptr %20, align 1
  br label %69

69:                                               ; preds = %65
  br label %70

70:                                               ; preds = %69
  store ptr null, ptr %19, align 8
  br label %98

71:                                               ; No predecessors!
  br label %72

72:                                               ; preds = %71
  br label %73

73:                                               ; preds = %72, %47
  br label %96

74:                                               ; preds = %44
  %75 = load ptr, ptr %11, align 8
  %76 = load i64, ptr %12, align 8
  %77 = load i64, ptr %13, align 8
  %78 = call ptr @H5G__create_named(ptr noundef %17, ptr noundef %75, i64 noundef %76, i64 noundef %77)
  store ptr %78, ptr %18, align 8
  %79 = icmp eq ptr null, %78
  br i1 %79, label %80, label %95

80:                                               ; preds = %74
  br label %81

81:                                               ; preds = %80
  br label %82

82:                                               ; preds = %81
  br label %83

83:                                               ; preds = %82
  %84 = load i64, ptr @H5E_SYM_g, align 8
  %85 = load i64, ptr @H5E_CANTINIT_g, align 8
  %86 = call i32 (ptr, ptr, i32, i64, i64, ptr, ...) @H5E_printf_stack(ptr noundef @.str, ptr noundef @__func__.H5VL__native_group_create, i32 noundef 102, i64 noundef %84, i64 noundef %85, ptr noundef @.str.2)
  br label %87

87:                                               ; preds = %83
  store i8 1, ptr %20, align 1
  %88 = load i8, ptr %20, align 1
  %89 = trunc i8 %88 to i1
  %90 = zext i1 %89 to i8
  store i8 %90, ptr %20, align 1
  br label %91

91:                                               ; preds = %87
  br label %92

92:                                               ; preds = %91
  store ptr null, ptr %19, align 8
  br label %98

93:                                               ; No predecessors!
  br label %94

94:                                               ; preds = %93
  br label %95

95:                                               ; preds = %94, %74
  br label %96

96:                                               ; preds = %95, %73
  %97 = load ptr, ptr %18, align 8
  store ptr %97, ptr %19, align 8
  br label %98

98:                                               ; preds = %96, %92, %70, %41
  %99 = load ptr, ptr %11, align 8
  %100 = icmp eq ptr %99, null
  br i1 %100, label %101, label %140

101:                                              ; preds = %98
  %102 = load ptr, ptr %18, align 8
  %103 = icmp ne ptr %102, null
  br i1 %103, label %104, label %139

104:                                              ; preds = %101
  %105 = load ptr, ptr %18, align 8
  %106 = call ptr @H5G_oloc(ptr noundef %105)
  store ptr %106, ptr %22, align 8
  %107 = icmp eq ptr null, %106
  br i1 %107, label %108, label %121

108:                                              ; preds = %104
  br label %109

109:                                              ; preds = %108
  br label %110

110:                                              ; preds = %109
  br label %111

111:                                              ; preds = %110
  %112 = load i64, ptr @H5E_SYM_g, align 8
  %113 = load i64, ptr @H5E_CANTGET_g, align 8
  %114 = call i32 (ptr, ptr, i32, i64, i64, ptr, ...) @H5E_printf_stack(ptr noundef @.str, ptr noundef @__func__.H5VL__native_group_create, i32 noundef 115, i64 noundef %112, i64 noundef %113, ptr noundef @.str.3)
  br label %115

115:                                              ; preds = %111
  store i8 1, ptr %20, align 1
  %116 = load i8, ptr %20, align 1
  %117 = trunc i8 %116 to i1
  %118 = zext i1 %117 to i8
  store i8 %118, ptr %20, align 1
  br label %119

119:                                              ; preds = %115
  store ptr null, ptr %19, align 8
  br label %120

120:                                              ; preds = %119
  br label %121

121:                                              ; preds = %120, %104
  %122 = load ptr, ptr %22, align 8
  %123 = call i32 @H5O_dec_rc_by_loc(ptr noundef %122)
  %124 = icmp slt i32 %123, 0
  br i1 %124, label %125, label %138

125:                                              ; preds = %121
  br label %126

126:                                              ; preds = %125
  br label %127

127:                                              ; preds = %126
  br label %128

128:                                              ; preds = %127
  %129 = load i64, ptr @H5E_SYM_g, align 8
  %130 = load i64, ptr @H5E_CANTDEC_g, align 8
  %131 = call i32 (ptr, ptr, i32, i64, i64, ptr, ...) @H5E_printf_stack(ptr noundef @.str, ptr noundef @__func__.H5VL__native_group_create, i32 noundef 120, i64 noundef %129, i64 noundef %130, ptr noundef @.str.4)
  br label %132

132:                                              ; preds = %128
  store i8 1, ptr %20, align 1
  %133 = load i8, ptr %20, align 1
  %134 = trunc i8 %133 to i1
  %135 = zext i1 %134 to i8
  store i8 %135, ptr %20, align 1
  br label %136

136:                                              ; preds = %132
  store ptr null, ptr %19, align 8
  br label %137

137:                                              ; preds = %136
  br label %138

138:                                              ; preds = %137, %121
  br label %139

139:                                              ; preds = %138, %101
  br label %140

140:                                              ; preds = %139, %98
  %141 = load ptr, ptr %19, align 8
  ret ptr %141
}