; Function Attrs: nounwind uwtable
define ptr @H5VL__native_group_create(ptr noundef %0, ptr nocapture noundef readonly %1, ptr noundef %2, i64 noundef %3, i64 noundef %4, i64 noundef %5, i64 noundef %6, ptr nocapture noundef readnone %7) local_unnamed_addr #0 {
  %9 = alloca %struct.H5G_loc_t, align 8
  %10 = alloca %struct.H5G_obj_create_t, align 8
  %11 = load i32, ptr %1, align 8
  %12 = call i32 @H5G_loc_real(ptr noundef %0, i32 noundef %11, ptr noundef nonnull %9) #3
  %13 = icmp slt i32 %12, 0
  br i1 %13, label %14, label %18

14:                                               ; preds = %8
  %15 = load i64, ptr @H5E_ARGS_g, align 8
  %16 = load i64, ptr @H5E_BADTYPE_g, align 8
  %17 = call i32 (ptr, ptr, i32, i64, i64, ptr, ...) @H5E_printf_stack(ptr noundef nonnull @.str, ptr noundef nonnull @__func__.H5VL__native_group_create, i32 noundef 83, i64 noundef %15, i64 noundef %16, ptr noundef nonnull @.str.1) #3
  br label %.thread

18:                                               ; preds = %8
  %19 = icmp eq ptr %2, null
  br i1 %19, label %20, label %31

20:                                               ; preds = %18
  store i64 %4, ptr %10, align 8
  %21 = getelementptr inbounds i8, ptr %10, i64 8
  store i32 0, ptr %21, align 8
  %22 = getelementptr inbounds i8, ptr %10, i64 16
  call void @llvm.memset.p0.i64(ptr noundef nonnull align 8 dereferenceable(16) %22, i8 0, i64 16, i1 false)
  %23 = load ptr, ptr %9, align 8
  %24 = load ptr, ptr %23, align 8
  %25 = call ptr @H5G__create(ptr noundef %24, ptr noundef nonnull %10) #3
  %26 = icmp eq ptr %25, null
  br i1 %26, label %27, label %38

27:                                               ; preds = %20
  %28 = load i64, ptr @H5E_SYM_g, align 8
  %29 = load i64, ptr @H5E_CANTINIT_g, align 8
  %30 = call i32 (ptr, ptr, i32, i64, i64, ptr, ...) @H5E_printf_stack(ptr noundef nonnull @.str, ptr noundef nonnull @__func__.H5VL__native_group_create, i32 noundef 96, i64 noundef %28, i64 noundef %29, ptr noundef nonnull @.str.2) #3
  br label %.thread

31:                                               ; preds = %18
  %32 = call ptr @H5G__create_named(ptr noundef nonnull %9, ptr noundef nonnull %2, i64 noundef %3, i64 noundef %4) #3
  %33 = icmp eq ptr %32, null
  br i1 %33, label %34, label %.thread

34:                                               ; preds = %31
  %35 = load i64, ptr @H5E_SYM_g, align 8
  %36 = load i64, ptr @H5E_CANTINIT_g, align 8
  %37 = call i32 (ptr, ptr, i32, i64, i64, ptr, ...) @H5E_printf_stack(ptr noundef nonnull @.str, ptr noundef nonnull @__func__.H5VL__native_group_create, i32 noundef 102, i64 noundef %35, i64 noundef %36, ptr noundef nonnull @.str.2) #3
  br label %.thread

38:                                               ; preds = %20
  %39 = call ptr @H5G_oloc(ptr noundef nonnull %25) #3
  %40 = icmp eq ptr %39, null
  br i1 %40, label %41, label %45

41:                                               ; preds = %38
  %42 = load i64, ptr @H5E_SYM_g, align 8
  %43 = load i64, ptr @H5E_CANTGET_g, align 8
  %44 = call i32 (ptr, ptr, i32, i64, i64, ptr, ...) @H5E_printf_stack(ptr noundef nonnull @.str, ptr noundef nonnull @__func__.H5VL__native_group_create, i32 noundef 115, i64 noundef %42, i64 noundef %43, ptr noundef nonnull @.str.3) #3
  br label %45

45:                                               ; preds = %41, %38
  %.119 = phi ptr [ null, %41 ], [ %25, %38 ]
  %46 = call i32 @H5O_dec_rc_by_loc(ptr noundef %39) #3
  %47 = icmp slt i32 %46, 0
  br i1 %47, label %48, label %.thread

48:                                               ; preds = %45
  %49 = load i64, ptr @H5E_SYM_g, align 8
  %50 = load i64, ptr @H5E_CANTDEC_g, align 8
  %51 = call i32 (ptr, ptr, i32, i64, i64, ptr, ...) @H5E_printf_stack(ptr noundef nonnull @.str, ptr noundef nonnull @__func__.H5VL__native_group_create, i32 noundef 120, i64 noundef %49, i64 noundef %50, ptr noundef nonnull @.str.4) #3
  br label %.thread

.thread:                                          ; preds = %27, %14, %34, %31, %48, %45
  %.2 = phi ptr [ null, %48 ], [ %.119, %45 ], [ %32, %31 ], [ null, %34 ], [ null, %27 ], [ null, %14 ]
  ret ptr %.2
}